;
; pdp11dasm version 0.0.3
; disassembly of console.o
;
000000: 000407              	br	20			; ..
;
000002: 000276              	invalid opcode			; >.
000004: 000000              	halt				; ..
000006: 000000              	halt				; ..
;
000010: 000040              	invalid opcode			;  .
000012: 000000              	halt				; ..
000014: 000000              	halt				; ..
000016: 000000              	halt				; ..
;
000020: 013700 177564       	mov	@#177564,r0		; @.t.
000024: 042700 177577       	bic	#177577,r0		; @E..
000030: 001773              	beq	20			; {.
000032: 116637 000002 177566	movb	2(r6),@#177566		; ....v.
000040: 000207              	ret				; ..
;
000042: 013700 177560       	mov	@#177560,r0		; @.p.
000046: 042700 177577       	bic	#177577,r0		; @E..
000052: 001773              	beq	42			; {.
000054: 113700 177562       	movb	@#177562,r0		; @.r.
000060: 142700 177600       	bicb	#177600,r0		; @E..
000064: 000207              	ret				; ..
;
000066: 010246              	mov	r2,-(r6)		; &.
000070: 010346              	mov	r3,-(r6)		; f.
000072: 010446              	mov	r4,-(r6)		; &.
000074: 016603 000010       	mov	10(r6),r3		; ....
000100: 010302              	mov	r3,r2			; B.
000102: 016604 000012       	mov	12(r6),r4		; ....
000106: 062704 177776       	add	#177776,r4		; De~.
000112: 004767 177724       	call	42			; w.T.
000116: 120027 000010       	cmpb	r0,#10			; . ..
000122: 001403              	beq	132			; ..
000124: 120027 000177       	cmpb	r0,#177			; . ..
000130: 001020              	bne	172			; ..
000132: 012700 000000       	mov	#0,r0			; @...
000136: 020203              	cmp	r2,r3			; . 
000140: 101410              	blos	162			; ..
000142: 112746 000043       	movb	#43,-(r6)		; f.#.
000146: 004710              	call	(r0)			; H.
000150: 005302              	dec	r2			; B.
000152: 062706 000002       	add	#2,r6			; Fe..
000156: 105012              	clrb	(r2)			; ..
000160: 000754              	br	112			; l.
;
000162: 112746 000007       	movb	#7,-(r6)		; f...
000166: 004710              	call	(r0)			; H.
000170: 000770              	br	152			; x.
;
000172: 120027 000037       	cmpb	r0,#37			; . ..
000176: 003411              	ble	222			; ..
000200: 010301              	mov	r3,r1			; A.
000202: 060401              	add	r4,r1			; .a
000204: 020201              	cmp	r2,r1			; . 
000206: 103363              	bcc	156			; s.
000210: 110022              	movb	r0,(r2)+		; ..
000212: 110046              	movb	r0,-(r6)		; &.
000214: 004767 177600       	call	20			; w...
000220: 000754              	br	152			; l.
;
000222: 120027 000015       	cmpb	r0,#15			; . ..
000226: 001353              	bne	156			; k.
000230: 110046              	movb	r0,-(r6)		; &.
000232: 012702 000000       	mov	#0,r2			; B...
000236: 004712              	call	(r2)			; J.
000240: 112746 000012       	movb	#12,-(r6)		; f...
000244: 004712              	call	(r2)			; J.
000246: 062706 000004       	add	#4,r6			; Fe..
000252: 012604              	mov	(r6)+,r4		; ..
000254: 012603              	mov	(r6)+,r3		; ..
000256: 012602              	mov	(r6)+,r2		; ..
000260: 000207              	ret				; ..
;
000262: 010246              	mov	r2,-(r6)		; &.
000264: 016602 000004       	mov	4(r6),r2		; ....
000270: 112200              	movb	(r2)+,r0		; ..
000272: 105700              	tstb	r0			; @.
000274: 001002              	bne	302			; ..
000276: 012602              	mov	(r6)+,r2		; ..
000300: 000207              	ret				; ..
;
000302: 110046              	movb	r0,-(r6)		; &.
000304: 004767 177510       	call	20			; w.H.
000310: 062706 000002       	add	#2,r6			; Fe..
000314: 000765              	br	270			; u.
;
000316: 000000              	halt				; ..
000320: 000000              	halt				; ..
000322: 000000              	halt				; ..
000324: 000000              	halt				; ..
000326: 000000              	halt				; ..
000330: 000000              	halt				; ..
000332: 000000              	halt				; ..
000334: 000000              	halt				; ..
000336: 000000              	halt				; ..
000340: 000000              	halt				; ..
000342: 000000              	halt				; ..
000344: 000000              	halt				; ..
000346: 000000              	halt				; ..
000350: 000000              	halt				; ..
000352: 000000              	halt				; ..
000354: 000000              	halt				; ..
000356: 000000              	halt				; ..
000360: 000000              	halt				; ..
000362: 000000              	halt				; ..
000364: 000000              	halt				; ..
000366: 000000              	halt				; ..
000370: 000000              	halt				; ..
000372: 000000              	halt				; ..
000374: 000000              	halt				; ..
000376: 000000              	halt				; ..
000400: 000000              	halt				; ..
000402: 000000              	halt				; ..
000404: 000000              	halt				; ..
000406: 000000              	halt				; ..
000410: 000000              	halt				; ..
000412: 000000              	halt				; ..
000414: 000000              	halt				; ..
000416: 000000              	halt				; ..
000420: 000000              	halt				; ..
000422: 000000              	halt				; ..
000424: 000000              	halt				; ..
000426: 000000              	halt				; ..
000430: 000000              	halt				; ..
;
000432: 000002              	rti				; ..
;
000434: 000000              	halt				; ..
000436: 000000              	halt				; ..
000440: 000000              	halt				; ..
000442: 000000              	halt				; ..
000444: 000000              	halt				; ..
000446: 000000              	halt				; ..
000450: 000000              	halt				; ..
000452: 000000              	halt				; ..
000454: 000000              	halt				; ..
000456: 000000              	halt				; ..
000460: 000000              	halt				; ..
000462: 000000              	halt				; ..
000464: 000000              	halt				; ..
000466: 000000              	halt				; ..
000470: 000000              	halt				; ..
000472: 000000              	halt				; ..
000474: 000000              	halt				; ..
000476: 000000              	halt				; ..
000500: 000000              	halt				; ..
000502: 000000              	halt				; ..
000504: 000000              	halt				; ..
000506: 000000              	halt				; ..
000510: 000000              	halt				; ..
000512: 000000              	halt				; ..
000514: 000000              	halt				; ..
000516: 000000              	halt				; ..
000520: 000000              	halt				; ..
000522: 000000              	halt				; ..
000524: 000000              	halt				; ..
000526: 000000              	halt				; ..
000530: 000000              	halt				; ..
;
000532: 000002              	rti				; ..
;
000534: 000000              	halt				; ..
000536: 000000              	halt				; ..
000540: 000000              	halt				; ..
000542: 000000              	halt				; ..
000544: 000000              	halt				; ..
000546: 000000              	halt				; ..
000550: 000000              	halt				; ..
000552: 000000              	halt				; ..
000554: 000000              	halt				; ..
000556: 000000              	halt				; ..
000560: 000000              	halt				; ..
000562: 000000              	halt				; ..
000564: 000000              	halt				; ..
000566: 000000              	halt				; ..
000570: 000000              	halt				; ..
000572: 000000              	halt				; ..
000574: 000000              	halt				; ..
000576: 000000              	halt				; ..
000600: 000000              	halt				; ..
000602: 000000              	halt				; ..
000604: 000000              	halt				; ..
000606: 000000              	halt				; ..
000610: 000000              	halt				; ..
000612: 000000              	halt				; ..
000614: 000000              	halt				; ..
;
000616: 000004              	iot				; ..
000620: 000042              	invalid opcode			; ".
000622: 000000              	halt				; ..
000624: 000000              	halt				; ..
;
000626: 000017              	invalid opcode			; ..
000630: 000042              	invalid opcode			; ".
000632: 000022              	invalid opcode			; ..
000634: 000000              	halt				; ..
;
000636: 000032              	invalid opcode			; ..
000640: 000042              	invalid opcode			; ".
000642: 000046              	invalid opcode			; &.
000644: 000000              	halt				; ..
;
000646: 000045              	invalid opcode			; %.
000650: 000042              	invalid opcode			; ".
000652: 000242              	clv				; ".
000654: 000000              	halt				; ..
;
000656: 000060              	invalid opcode			; 0.
000660: 061537 067157       	add	(r5),@#67157		; _con
000664: 057563 072560 061564	bis	@72560(r5),61564(r3)	; s_putc
000672: 057400 067543       	bis	@67543(r4),r0		; ._co
000676: 071556              	div	@-(r6),r5		; ns
000700: 063537 072145       	add	@(r5)+,@#72145		; _get
000704: 000143              	jmp	-(r3)			; c.
;
000706: 061537 067157       	add	(r5),@#67157		; _con
000712: 057563 062547 071564	bis	@62547(r5),71564(r3)	; s_gets
000720: 057400 067543       	bis	@67543(r4),r0		; ._co
000724: 071556              	div	@-(r6),r5		; ns
000726: 070137 072165       	mul	@#72165,r1		; _put
000732: 000163 000000       	jmp	0(r3)			; s...
;
