;
; pdp11dasm version 0.0.3
; disassembly of time.o
;
000000: 000407              	br	20			; ..
;
000002: 000420              	br	44			; ..
;
000004: 000116              	jmp	(r6)			; N.
;
000006: 000000              	halt				; ..
;
000010: 000370 000000       	swab	@0(r0)			; x...
000014: 000000              	halt				; ..
000016: 000000              	halt				; ..
;
000020: 012737 000006 000004	mov	#6,@#4			; _.....
000026: 012737 000000 000006	mov	#0,@#6			; _.....
000034: 012737 000012 000010	mov	#12,@#10		; _.....
000042: 012737 000000 000012	mov	#0,@#12			; _.....
000050: 010706              	mov	r7,r6			; F.
000052: 005746              	tst	-(r6)			; f.
000054: 012700 000420       	mov	#420,r0			; @...
000060: 012701 000442       	mov	#442,r1			; A.".
000064: 004767 000234       	call	324			; w...
000070: 012702 000004       	mov	#4,r2			; B...
000074: 012700 000514       	mov	#514,r0			; @.L.
000100: 010001              	mov	r0,r1			; ..
000102: 105737 177560       	tstb	@#177560		; _.p.
000106: 100375              	bpl	102			; }.
000110: 113710 177562       	movb	@#177562,(r0)		; H.r.
000114: 142710 000200       	bicb	#200,(r0)		; HE..
000120: 004767 000200       	call	324			; w...
000124: 005200              	inc	r0			; ..
000126: 005302              	dec	r2			; B.
000130: 001363              	bne	100			; s.
000132: 113700 000515       	movb	@#515,r0		; @.M.
000136: 113701 000514       	movb	@#514,r1		; A.L.
000142: 004767 000202       	call	350			; w...
000146: 010237 000520       	mov	r2,@#520		; ..P.
000152: 113700 000517       	movb	@#517,r0		; @.O.
000156: 113701 000516       	movb	@#516,r1		; A.N.
000162: 004767 000162       	call	350			; w.r.
000166: 010237 000522       	mov	r2,@#522		; ..R.
000172: 012737 000176 000060	mov	#176,@#60		; _.~.0.
000200: 012737 000200 000340	mov	#200,@#340		; _...`.
000206: 012737 000100 177560	mov	#100,@#177560		; _.@.p.
000214: 000777              	br	214			; ..
;
000216: 012700 000530       	mov	#530,r0			; @.X.
000222: 013720 000520       	mov	@#520,(r0)+		; P.P.
000226: 013720 000522       	mov	@#522,(r0)+		; P.R.
000232: 013710 000524       	mov	@#524,(r0)		; H.T.
000236: 005027 177776       	clr	#177776			; ..~.
000242: 012700 000443       	mov	#443,r0			; @.#.
000246: 012701 000502       	mov	#502,r1			; A.B.
000252: 004767 000046       	call	324			; w.&.
000256: 012702 000530       	mov	#530,r2			; B.X.
000262: 012703 000503       	mov	#503,r3			; C.C.
000266: 004767 000104       	call	376			; w.D.
000272: 004767 000100       	call	376			; w.@.
000276: 004767 000074       	call	376			; w.<.
000302: 012700 000503       	mov	#503,r0			; @.C.
000306: 012701 000513       	mov	#513,r1			; A.K.
000312: 004767 000006       	call	324			; w...
000316: 005737 177562       	tst	@#177562		; _.r.
000322: 000002              	rti				; ..
;
000324: 010005              	mov	r0,r5			; ..
000326: 020501              	cmp	r5,r1			; A!
000330: 101006              	bhi	346			; ..
000332: 105737 177564       	tstb	@#177564		; _.t.
000336: 100375              	bpl	332			; }.
000340: 112537 177566       	movb	(r5)+,@#177566		; _.v.
000344: 000770              	br	326			; x.
;
000346: 000207              	ret				; ..
;
000350: 042700 177760       	bic	#177760,r0		; @Ep.
000354: 010002              	mov	r0,r2			; ..
000356: 120127 000060       	cmpb	r1,#60			; W 0.
000362: 001404              	beq	374			; ..
000364: 062702 000012       	add	#12,r2			; Be..
000370: 005301              	dec	r1			; A.
000372: 000771              	br	356			; y.
;
000374: 000207              	ret				; ..
;
000376: 012200              	mov	(r2)+,r0		; ..
000400: 005001              	clr	r1			; ..
000402: 020027 000012       	cmp	r0,#12			; . ..
000406: 002404              	blt	420			; ..
000410: 005201              	inc	r1			; ..
000412: 162700 000012       	sub	#12,r0			; @e..
000416: 000771              	br	402			; y.
;
000420: 062701 000060       	add	#60,r1			; Ae0.
000424: 062700 000060       	add	#60,r0			; @e0.
000430: 110123              	movb	r1,(r3)+		; S.
000432: 110023              	movb	r0,(r3)+		; ..
000434: 005203              	inc	r3			; ..
000436: 000207              	ret				; ..
;
000440: 006017              	ror	(r7)			; ..
000442: 044127 052101       	bic	-(r1),#52101		; WHAT
000446: 052040              	bis	(r0)+,-(r0)		;  T
000450: 046511 020105       	bic	20105(r5),(r1)		; IME 
000454: 051511              	bis	(r5),(r1)		; IS
000456: 044440              	bic	-(r4),-(r0)		;  I
000460: 037524 007440       	bit	@7440(r5),(r4)+		; T? .
000464: 040414              	bic	r4,(r4)			; .A
000466: 020124              	cmp	r1,(r4)+		; T 
000470: 044124              	bic	-(r1),(r4)+		; TH
000472: 020105              	cmp	r1,r5			; E 
000474: 042502              	bic	(r5)+,r2		; BE
000476: 046114 052040       	bic	52040(r1),(r4)		; LL T
000502: 042510              	bic	(r5)+,(r0)		; HE
000504: 052040              	bis	(r0)+,-(r0)		;  T
000506: 046511 020105       	bic	20105(r5),(r1)		; IME 
000512: 044527 046114       	bic	-(r5),#46114		; WILL
000516: 041040              	bic	(r0),-(r0)		;  B
000520: 035105              	bit	@-(r1),r5		; E:
000522: 044040              	bic	-(r0),-(r0)		;  H
000524: 035110              	bit	@-(r1),(r0)		; H:
000526: 046515 051472       	bic	51472(r5),(r5)		; MM:S
000532: 003523              	ble	1002			; S.
000534: 000000              	halt				; ..
000536: 000000              	halt				; ..
000540: 000000              	halt				; ..
000542: 000000              	halt				; ..
000544: 000000              	halt				; ..
000546: 000000              	halt				; ..
000550: 000000              	halt				; ..
000552: 000000              	halt				; ..
000554: 000000              	halt				; ..
000556: 000000              	halt				; ..
000560: 000000              	halt				; ..
000562: 000000              	halt				; ..
000564: 000000              	halt				; ..
000566: 000000              	halt				; ..
000570: 000000              	halt				; ..
000572: 000000              	halt				; ..
000574: 000000              	halt				; ..
000576: 000000              	halt				; ..
000600: 000000              	halt				; ..
000602: 000000              	halt				; ..
000604: 000000              	halt				; ..
000606: 000000              	halt				; ..
000610: 000000              	halt				; ..
000612: 000000              	halt				; ..
;
000614: 000004              	iot				; ..
000616: 000000              	halt				; ..
;
000620: 000004              	iot				; ..
000622: 000000              	halt				; ..
000624: 000000              	halt				; ..
000626: 000000              	halt				; ..
000630: 000000              	halt				; ..
000632: 000000              	halt				; ..
;
000634: 000004              	iot				; ..
000636: 000000              	halt				; ..
000640: 000000              	halt				; ..
000642: 000000              	halt				; ..
000644: 000000              	halt				; ..
000646: 000000              	halt				; ..
000650: 000000              	halt				; ..
000652: 000000              	halt				; ..
000654: 000000              	halt				; ..
000656: 000000              	halt				; ..
000660: 000000              	halt				; ..
000662: 000000              	halt				; ..
000664: 000000              	halt				; ..
000666: 000000              	halt				; ..
000670: 000000              	halt				; ..
;
000672: 000004              	iot				; ..
000674: 000000              	halt				; ..
;
000676: 000004              	iot				; ..
000700: 000000              	halt				; ..
000702: 000000              	halt				; ..
000704: 000000              	halt				; ..
;
000706: 000004              	iot				; ..
000710: 000000              	halt				; ..
;
000712: 000004              	iot				; ..
000714: 000000              	halt				; ..
;
000716: 000004              	iot				; ..
000720: 000000              	halt				; ..
000722: 000000              	halt				; ..
000724: 000000              	halt				; ..
;
000726: 000004              	iot				; ..
000730: 000000              	halt				; ..
;
000732: 000002              	rti				; ..
;
000734: 000000              	halt				; ..
000736: 000000              	halt				; ..
;
000740: 000002              	rti				; ..
;
000742: 000000              	halt				; ..
000744: 000000              	halt				; ..
000746: 000000              	halt				; ..
000750: 000000              	halt				; ..
000752: 000000              	halt				; ..
000754: 000000              	halt				; ..
;
000756: 000004              	iot				; ..
000760: 000000              	halt				; ..
;
000762: 000004              	iot				; ..
000764: 000000              	halt				; ..
;
000766: 000004              	iot				; ..
000770: 000000              	halt				; ..
;
000772: 000004              	iot				; ..
000774: 000000              	halt				; ..
000776: 000000              	halt				; ..
001000: 000000              	halt				; ..
;
001002: 000004              	iot				; ..
001004: 000000              	halt				; ..
;
001006: 000004              	iot				; ..
001010: 000000              	halt				; ..
001012: 000000              	halt				; ..
001014: 000000              	halt				; ..
;
001016: 000004              	iot				; ..
001020: 000000              	halt				; ..
;
001022: 000004              	iot				; ..
001024: 000000              	halt				; ..
001026: 000000              	halt				; ..
001030: 000000              	halt				; ..
001032: 000000              	halt				; ..
001034: 000000              	halt				; ..
001036: 000000              	halt				; ..
001040: 000000              	halt				; ..
;
001042: 000004              	iot				; ..
001044: 000000              	halt				; ..
;
001046: 000004              	iot				; ..
001050: 000000              	halt				; ..
001052: 000000              	halt				; ..
001054: 000000              	halt				; ..
001056: 000000              	halt				; ..
001060: 000000              	halt				; ..
001062: 000000              	halt				; ..
001064: 000000              	halt				; ..
001066: 000000              	halt				; ..
001070: 000000              	halt				; ..
001072: 000000              	halt				; ..
001074: 000000              	halt				; ..
001076: 000000              	halt				; ..
001100: 000000              	halt				; ..
001102: 000000              	halt				; ..
001104: 000000              	halt				; ..
001106: 000000              	halt				; ..
001110: 000000              	halt				; ..
001112: 000000              	halt				; ..
001114: 000000              	halt				; ..
001116: 000000              	halt				; ..
001120: 000000              	halt				; ..
001122: 000000              	halt				; ..
001124: 000000              	halt				; ..
001126: 000000              	halt				; ..
001130: 000000              	halt				; ..
001132: 000000              	halt				; ..
001134: 000000              	halt				; ..
001136: 000000              	halt				; ..
001140: 000000              	halt				; ..
001142: 000000              	halt				; ..
001144: 000000              	halt				; ..
001146: 000000              	halt				; ..
001150: 000000              	halt				; ..
001152: 000000              	halt				; ..
001154: 000000              	halt				; ..
001156: 000000              	halt				; ..
001160: 000000              	halt				; ..
001162: 000000              	halt				; ..
001164: 000000              	halt				; ..
001166: 000000              	halt				; ..
001170: 000000              	halt				; ..
001172: 000000              	halt				; ..
001174: 000000              	halt				; ..
001176: 000000              	halt				; ..
001200: 000000              	halt				; ..
001202: 000000              	halt				; ..
001204: 000000              	halt				; ..
001206: 000000              	halt				; ..
001210: 000000              	halt				; ..
001212: 000000              	halt				; ..
001214: 000000              	halt				; ..
001216: 000000              	halt				; ..
001220: 000000              	halt				; ..
001222: 000000              	halt				; ..
001224: 000000              	halt				; ..
001226: 000000              	halt				; ..
001230: 000000              	halt				; ..
001232: 000000              	halt				; ..
001234: 000000              	halt				; ..
001236: 000000              	halt				; ..
001240: 000000              	halt				; ..
001242: 000000              	halt				; ..
001244: 000000              	halt				; ..
001246: 000000              	halt				; ..
001250: 000000              	halt				; ..
001252: 000000              	halt				; ..
001254: 000000              	halt				; ..
001256: 000000              	halt				; ..
001260: 000000              	halt				; ..
001262: 000000              	halt				; ..
001264: 000000              	halt				; ..
001266: 000000              	halt				; ..
001270: 000000              	halt				; ..
001272: 000000              	halt				; ..
001274: 000000              	halt				; ..
001276: 000000              	halt				; ..
001300: 000000              	halt				; ..
001302: 000000              	halt				; ..
001304: 000000              	halt				; ..
001306: 000000              	halt				; ..
001310: 000000              	halt				; ..
001312: 000000              	halt				; ..
001314: 000000              	halt				; ..
;
001316: 000004              	iot				; ..
001320: 000042              	invalid opcode			; ".
001322: 000000              	halt				; ..
001324: 000000              	halt				; ..
;
001326: 000012              	invalid opcode			; ..
001330: 000001              	wait				; ..
001332: 177560 000000       	ldcdf	f1,0(r0)		; p...
001336: 000021              	invalid opcode			; ..
001340: 000001              	wait				; ..
001342: 177562 000000       	ldcdf	f1,0(r2)		; r...
001346: 000030              	invalid opcode			; ..
001350: 000001              	wait				; ..
001352: 177564 000000       	ldcdf	f1,0(r4)		; t...
001356: 000037              	invalid opcode			; ..
001360: 000001              	wait				; ..
001362: 177566 000000       	ldcdf	f1,0(r6)		; v...
001366: 000046              	invalid opcode			; &.
001370: 000001              	wait				; ..
001372: 177546              	ldcdf	f1,-(r6)		; f.
001374: 000000              	halt				; ..
;
001376: 000055              	invalid opcode			; -.
001400: 000002              	rti				; ..
;
001402: 000000              	halt				; ..
001404: 000000              	halt				; ..
;
001406: 000062              	invalid opcode			; 2.
001410: 000003              	bpt				; ..
001412: 000420              	br	1454			; ..
;
001414: 000000              	halt				; ..
;
001416: 000070              	invalid opcode			; 8.
001420: 000003              	bpt				; ..
001422: 000442              	br	1530			; ".
;
001424: 000000              	halt				; ..
;
001426: 000075              	invalid opcode			; =.
001430: 000002              	rti				; ..
;
001432: 000304              	swab	r4			; D.
001434: 000000              	halt				; ..
;
001436: 000103              	jmp	r3			; C.
;
001440: 000003              	bpt				; ..
001442: 000514              	br	1674			; L.
;
001444: 000000              	halt				; ..
;
001446: 000111              	jmp	(r1)			; I.
;
001450: 000002              	rti				; ..
;
001452: 000060              	invalid opcode			; 0.
001454: 000000              	halt				; ..
;
001456: 000117              	jmp	(r7)			; O.
;
001460: 000002              	rti				; ..
;
001462: 000330              	swab	@(r0)+			; X.
001464: 000000              	halt				; ..
;
001466: 000125              	jmp	(r5)+			; U.
;
001470: 000003              	bpt				; ..
001472: 000520              	br	1734			; P.
;
001474: 000000              	halt				; ..
;
001476: 000132              	jmp	@(r2)+			; Z.
;
001500: 000003              	bpt				; ..
001502: 000522              	br	1750			; R.
;
001504: 000000              	halt				; ..
;
001506: 000136              	jmp	@(r6)+			; ^.
;
001510: 000002              	rti				; ..
;
001512: 000152              	jmp	@-(r2)			; j.
;
001514: 000000              	halt				; ..
;
001516: 000143              	jmp	-(r3)			; c.
;
001520: 000002              	rti				; ..
;
001522: 000176 000000       	jmp	@0(r6)			; ~...
;
001526: 000151              	jmp	@-(r1)			; i.
;
001530: 000003              	bpt				; ..
001532: 000530              	br	2014			; X.
;
001534: 000000              	halt				; ..
;
001536: 000156              	jmp	@-(r6)			; n.
;
001540: 000003              	bpt				; ..
001542: 000524              	br	2014			; T.
;
001544: 000000              	halt				; ..
;
001546: 000162 000003       	jmp	3(r2)			; r...
;
001552: 000443              	br	1662			; #.
;
001554: 000000              	halt				; ..
;
001556: 000170 000003       	jmp	@3(r0)			; x...
;
001562: 000502              	br	1770			; B.
;
001564: 000000              	halt				; ..
;
001566: 000175 000003       	jmp	@3(r5)			; }...
;
001572: 000503              	br	2002			; C.
;
001574: 000000              	halt				; ..
;
001576: 000204              	rts	r4			; ..
;
001600: 000002              	rti				; ..
;
001602: 000356              	swab	@-(r6)			; n.
001604: 000000              	halt				; ..
;
001606: 000213              	invalid opcode			; ..
001610: 000003              	bpt				; ..
001612: 000513              	br	2042			; K.
;
001614: 000000              	halt				; ..
;
001616: 000220              	invalid opcode			; ..
001620: 000002              	rti				; ..
;
001622: 000306              	swab	r6			; F.
001624: 000000              	halt				; ..
;
001626: 000226              	invalid opcode			; ..
001630: 000002              	rti				; ..
;
001632: 000326              	swab	(r6)+			; V.
001634: 000000              	halt				; ..
;
001636: 000234              	spl	4			; ..
001640: 000002              	rti				; ..
;
001642: 000336              	swab	@(r6)+			; ^.
001644: 000000              	halt				; ..
;
001646: 000241              	clc				; !.
001650: 000002              	rti				; ..
;
001652: 000354              	swab	@-(r4)			; l.
001654: 000000              	halt				; ..
;
001656: 000247              	invalid opcode			; '.
001660: 000002              	rti				; ..
;
001662: 000362 000000       	swab	0(r2)			; r...
001666: 000254              	invalid opcode			; ,.
001670: 000002              	rti				; ..
;
001672: 000400              	br	1674			; ..
;
001674: 000000              	halt				; ..
;
001676: 000262              	sev				; 2.
001700: 000003              	bpt				; ..
001702: 000526              	br	2160			; V.
;
001704: 000000              	halt				; ..
;
001706: 000267              	invalid opcode			; 7.
001710: 072163 071141       	ash	71141(r3),r1		; star
001714: 000164 041113       	jmp	41113(r4)		; t.KB
;
001720: 052123              	bis	(r1)+,(r3)+		; ST
001722: 052101              	bis	(r1)+,r1		; AT
001724: 045400              	bic	@-(r4),r0		; .K
001726: 042102              	bic	(r1)+,r2		; BD
001730: 052101              	bis	(r1)+,r1		; AT
001732: 000101              	jmp	r1			; A.
;
001734: 051120              	bis	(r1),(r0)+		; PR
001736: 052123              	bis	(r1)+,(r3)+		; ST
001740: 052101              	bis	(r1)+,r1		; AT
001742: 050000              	bis	r0,r0			; .P
001744: 042122              	bic	(r1)+,(r2)+		; RD
001746: 052101              	bis	(r1)+,r1		; AT
001750: 000101              	jmp	r1			; A.
;
001752: 046103 052123       	bic	52123(r1),r3		; CLST
001756: 052101              	bis	(r1)+,r1		; AT
001760: 053000              	bis	@(r0)+,r0		; .V
001762: 041505              	bic	(r5),r5			; EC
001764: 000123              	jmp	(r3)+			; S.
;
001766: 052521              	bis	(r5)+,(r1)+		; QU
001770: 051105              	bis	(r1),r5			; ER
001772: 000131              	jmp	@(r1)+			; Y.
;
001774: 047105 050504       	bic	@50504(r1),r5		; ENDQ
002000: 050000              	bis	r0,r0			; .P
002002: 044522              	bic	-(r5),(r2)+		; RI
002004: 052116              	bis	(r1)+,(r6)		; NT
002006: 044400              	bic	-(r4),r0		; .I
002010: 044524              	bic	-(r5),(r4)+		; TI
002012: 042515              	bic	(r5)+,(r5)		; ME
002014: 047000 054105       	bic	@54105(r0),r0		; .NEX
002020: 042124              	bic	(r1)+,(r4)+		; TD
002022: 044400              	bic	-(r4),r0		; .I
002024: 041516              	bic	(r5),(r6)		; NC
002026: 047117 044000       	bic	@44000(r1),(r7)		; ON.H
002032: 052517              	bis	(r5)+,(r7)		; OU
002034: 000122              	jmp	(r2)+			; R.
;
002036: 044515              	bic	-(r5),(r5)		; MI
002040: 000116              	jmp	(r6)			; N.
;
002042: 051511              	bis	(r5),(r1)		; IS
002044: 051522              	bis	(r5),(r2)+		; RS
002046: 045400              	bic	@-(r4),r0		; .K
002050: 044502              	bic	-(r5),r2		; BI
002052: 052116              	bis	(r1)+,(r6)		; NT
002054: 052000              	bis	(r0)+,r0		; .T
002056: 046505 000120       	bic	120(r5),r5		; EMP.
002062: 042523              	bic	(r5)+,(r3)+		; SE
002064: 000103              	jmp	r3			; C.
;
002066: 042515              	bic	(r5)+,(r5)		; ME
002070: 051523              	bis	(r5),(r3)+		; SS
002072: 000107              	jmp	r7			; G.
;
002074: 047105 046504       	bic	@46504(r1),r5		; ENDM
002100: 047400 052125       	bic	@52125(r4),r0		; .OUT
002104: 052520              	bis	(r5)+,(r0)+		; PU
002106: 000124              	jmp	(r4)+			; T.
;
002110: 052517              	bis	(r5)+,(r7)		; OU
002112: 041524              	bic	(r5),(r4)+		; TC
002114: 047117 042400       	bic	@42400(r1),(r7)		; ON.E
002120: 042116              	bic	(r1)+,(r6)		; ND
002122: 000117              	jmp	(r7)			; O.
;
002124: 043501              	bic	@(r5)+,r1		; AG
002126: 044501              	bic	-(r5),r1		; AI
002130: 000116              	jmp	(r6)			; N.
;
002132: 054105              	bis	-(r1),r5		; EX
002134: 052111              	bis	(r1)+,(r1)		; IT
002136: 000061              	invalid opcode			; 1.
002140: 042524              	bic	(r5)+,(r4)+		; TE
002142: 051516              	bis	(r5),(r6)		; NS
002144: 042400              	bic	(r4)+,r0		; .E
002146: 044530              	bic	-(r5),@(r0)+		; XI
002150: 031124              	bit	(r1),(r4)+		; T2
002152: 046400 051117       	bic	51117(r4),r0		; .MOR
002156: 000105              	jmp	r5			; E.
;
002160: 047125 052111       	bic	@52111(r1),(r5)+	; UNIT
002164: 000123              	jmp	(r3)+			; S.
;
002166: 044524              	bic	-(r5),(r4)+		; TI
002170: 045503              	bic	@-(r5),r3		; CK
