;
; pdp11dasm version 0.0.3
; disassembly of time.o
;
000000: 000407              	br	20			; ..
;
000002: 000514              	br	234			; L.
;
000004: 000116              	jmp	(r6)			; N.
;
000006: 000000              	halt				; ..
;
000010: 000440              	br	112			;  .
;
000012: 000000              	halt				; ..
000014: 000000              	halt				; ..
000016: 000000              	halt				; ..
;
000020: 012737 000006 000004	mov	#6,@#4			; _.....
000026: 012737 000000 000006	mov	#0,@#6			; _.....
000034: 012737 000012 000010	mov	#12,@#10		; _.....
000042: 012737 000000 000012	mov	#0,@#12			; _.....
000050: 010706              	mov	r7,r6			; F.
000052: 005746              	tst	-(r6)			; f.
000054: 012700 000514       	mov	#514,r0			; @.L.
000060: 012701 000536       	mov	#536,r1			; A.^.
000064: 004767 000330       	call	420			; w.X.
000070: 012702 000004       	mov	#4,r2			; B...
000074: 012700 000610       	mov	#610,r0			; @...
000100: 010001              	mov	r0,r1			; ..
000102: 105737 177560       	tstb	@#177560		; _.p.
000106: 100375              	bpl	102			; }.
000110: 113710 177562       	movb	@#177562,(r0)		; H.r.
000114: 142710 000200       	bicb	#200,(r0)		; HE..
000120: 004767 000274       	call	420			; w.<.
000124: 005200              	inc	r0			; ..
000126: 005302              	dec	r2			; B.
000130: 001363              	bne	100			; s.
000132: 113700 000611       	movb	@#611,r0		; @...
000136: 113701 000610       	movb	@#610,r1		; A...
000142: 004767 000276       	call	444			; w.>.
000146: 010237 000614       	mov	r2,@#614		; ....
000152: 113700 000613       	movb	@#613,r0		; @...
000156: 113701 000612       	movb	@#612,r1		; A...
000162: 004767 000256       	call	444			; w...
000166: 010237 000616       	mov	r2,@#616		; ....
000172: 012737 000272 000060	mov	#272,@#60		; _.:.0.
000200: 012737 000274 000340	mov	#274,@#340		; _.<.`.
000206: 012737 000220 000100	mov	#220,@#100		; _...@.
000214: 012737 000222 000300	mov	#222,@#300		; _...@.
000222: 012737 000100 177560	mov	#100,@#177560		; _.@.p.
000230: 012737 000100 177546	mov	#100,@#177546		; _.@.f.
000236: 000777              	br	236			; ..
;
000240: 012704 000622       	mov	#622,r4			; D...
000244: 004767 000020       	call	270			; w...
000250: 023727 000614 000014	cmp	@#614,#14		; W'....
000256: 003403              	ble	266			; ..
000260: 162737 000014 000614	sub	#14,@#614		; _e....
000266: 000002              	rti				; ..
;
000270: 005214              	inc	(r4)			; ..
000272: 021427 000074       	cmp	(r4),#74		; .#<.
000276: 001004              	bne	310			; ..
000300: 005014              	clr	(r4)			; ..
000302: 005744              	tst	-(r4)			; d.
000304: 004767 177760       	call	270			; w.p.
000310: 000207              	ret				; ..
;
000312: 012700 000624       	mov	#624,r0			; @...
000316: 013720 000614       	mov	@#614,(r0)+		; P...
000322: 013720 000616       	mov	@#616,(r0)+		; P...
000326: 013710 000620       	mov	@#620,(r0)		; H...
000332: 005027 177776       	clr	#177776			; ..~.
000336: 012700 000537       	mov	#537,r0			; @._.
000342: 012701 000576       	mov	#576,r1			; A.~.
000346: 004767 000046       	call	420			; w.&.
000352: 012702 000624       	mov	#624,r2			; B...
000356: 012703 000577       	mov	#577,r3			; C...
000362: 004767 000104       	call	472			; w.D.
000366: 004767 000100       	call	472			; w.@.
000372: 004767 000074       	call	472			; w.<.
000376: 012700 000577       	mov	#577,r0			; @...
000402: 012701 000607       	mov	#607,r1			; A...
000406: 004767 000006       	call	420			; w...
000412: 005737 177562       	tst	@#177562		; _.r.
000416: 000002              	rti				; ..
;
000420: 010005              	mov	r0,r5			; ..
000422: 020501              	cmp	r5,r1			; A!
000424: 101006              	bhi	442			; ..
000426: 105737 177564       	tstb	@#177564		; _.t.
000432: 100375              	bpl	426			; }.
000434: 112537 177566       	movb	(r5)+,@#177566		; _.v.
000440: 000770              	br	422			; x.
;
000442: 000207              	ret				; ..
;
000444: 042700 177760       	bic	#177760,r0		; @Ep.
000450: 010002              	mov	r0,r2			; ..
000452: 120127 000060       	cmpb	r1,#60			; W 0.
000456: 001404              	beq	470			; ..
000460: 062702 000012       	add	#12,r2			; Be..
000464: 005301              	dec	r1			; A.
000466: 000771              	br	452			; y.
;
000470: 000207              	ret				; ..
;
000472: 012200              	mov	(r2)+,r0		; ..
000474: 005001              	clr	r1			; ..
000476: 020027 000012       	cmp	r0,#12			; . ..
000502: 002404              	blt	514			; ..
000504: 005201              	inc	r1			; ..
000506: 162700 000012       	sub	#12,r0			; @e..
000512: 000771              	br	476			; y.
;
000514: 062701 000060       	add	#60,r1			; Ae0.
000520: 062700 000060       	add	#60,r0			; @e0.
000524: 110123              	movb	r1,(r3)+		; S.
000526: 110023              	movb	r0,(r3)+		; ..
000530: 005203              	inc	r3			; ..
000532: 000207              	ret				; ..
;
000534: 006017              	ror	(r7)			; ..
000536: 064127 072141       	add	-(r1),#72141		; What
000542: 072040              	ash	-(r0),r0		;  t
000544: 066551 020145       	add	20145(r5),@-(r1)	; ime 
000550: 071551              	div	@-(r1),r5		; is
000552: 064440              	add	-(r4),-(r0)		;  i
000554: 037564 007440 040414	bit	@7440(r5),40414(r4)	; t? ..A
000562: 020164 064164       	cmp	r1,64164(r4)		; t th
000566: 020145              	cmp	r1,-(r5)		; e 
000570: 062542              	add	(r5)+,-(r2)		; be
000572: 066154 072040       	add	72040(r1),@-(r4)	; ll t
000576: 062550              	add	(r5)+,@-(r0)		; he
000600: 072040              	ash	-(r0),r0		;  t
000602: 066551 020145       	add	20145(r5),@-(r1)	; ime 
000606: 064567 066154       	add	-(r5),66766		; will
000612: 061040              	add	(r0),-(r0)		;  b
000614: 035145              	bit	@-(r1),-(r5)		; e:
000616: 064040              	add	-(r0),-(r0)		;  h
000620: 035150              	bit	@-(r1),@-(r0)		; h:
000622: 066555 071472       	add	71472(r5),@-(r5)	; mm:s
000626: 003563              	ble	1176			; s.
000630: 000000              	halt				; ..
000632: 000000              	halt				; ..
000634: 000000              	halt				; ..
000636: 000000              	halt				; ..
000640: 000000              	halt				; ..
000642: 000000              	halt				; ..
000644: 000000              	halt				; ..
000646: 000000              	halt				; ..
000650: 000000              	halt				; ..
000652: 000000              	halt				; ..
000654: 000000              	halt				; ..
000656: 000000              	halt				; ..
000660: 000000              	halt				; ..
000662: 000000              	halt				; ..
000664: 000000              	halt				; ..
000666: 000000              	halt				; ..
000670: 000000              	halt				; ..
000672: 000000              	halt				; ..
000674: 000000              	halt				; ..
000676: 000000              	halt				; ..
000700: 000000              	halt				; ..
000702: 000000              	halt				; ..
000704: 000000              	halt				; ..
000706: 000000              	halt				; ..
;
000710: 000004              	iot				; ..
000712: 000000              	halt				; ..
;
000714: 000004              	iot				; ..
000716: 000000              	halt				; ..
000720: 000000              	halt				; ..
000722: 000000              	halt				; ..
000724: 000000              	halt				; ..
000726: 000000              	halt				; ..
;
000730: 000004              	iot				; ..
000732: 000000              	halt				; ..
000734: 000000              	halt				; ..
000736: 000000              	halt				; ..
000740: 000000              	halt				; ..
000742: 000000              	halt				; ..
000744: 000000              	halt				; ..
000746: 000000              	halt				; ..
000750: 000000              	halt				; ..
000752: 000000              	halt				; ..
000754: 000000              	halt				; ..
000756: 000000              	halt				; ..
000760: 000000              	halt				; ..
000762: 000000              	halt				; ..
000764: 000000              	halt				; ..
;
000766: 000004              	iot				; ..
000770: 000000              	halt				; ..
;
000772: 000004              	iot				; ..
000774: 000000              	halt				; ..
000776: 000000              	halt				; ..
001000: 000000              	halt				; ..
;
001002: 000004              	iot				; ..
001004: 000000              	halt				; ..
;
001006: 000004              	iot				; ..
001010: 000000              	halt				; ..
;
001012: 000004              	iot				; ..
001014: 000000              	halt				; ..
001016: 000000              	halt				; ..
001020: 000000              	halt				; ..
;
001022: 000004              	iot				; ..
001024: 000000              	halt				; ..
;
001026: 000002              	rti				; ..
;
001030: 000000              	halt				; ..
001032: 000000              	halt				; ..
;
001034: 000002              	rti				; ..
;
001036: 000000              	halt				; ..
001040: 000000              	halt				; ..
;
001042: 000002              	rti				; ..
;
001044: 000000              	halt				; ..
001046: 000000              	halt				; ..
;
001050: 000002              	rti				; ..
;
001052: 000000              	halt				; ..
001054: 000000              	halt				; ..
001056: 000000              	halt				; ..
001060: 000000              	halt				; ..
001062: 000000              	halt				; ..
001064: 000000              	halt				; ..
001066: 000000              	halt				; ..
001070: 000000              	halt				; ..
001072: 000000              	halt				; ..
;
001074: 000004              	iot				; ..
001076: 000000              	halt				; ..
001100: 000000              	halt				; ..
001102: 000000              	halt				; ..
;
001104: 000004              	iot				; ..
001106: 000000              	halt				; ..
001110: 000000              	halt				; ..
001112: 000000              	halt				; ..
001114: 000000              	halt				; ..
;
001116: 000004              	iot				; ..
001120: 000000              	halt				; ..
001122: 000000              	halt				; ..
001124: 000000              	halt				; ..
001126: 000000              	halt				; ..
001130: 000000              	halt				; ..
001132: 000000              	halt				; ..
001134: 000000              	halt				; ..
001136: 000000              	halt				; ..
001140: 000000              	halt				; ..
001142: 000000              	halt				; ..
001144: 000000              	halt				; ..
;
001146: 000004              	iot				; ..
001150: 000000              	halt				; ..
;
001152: 000004              	iot				; ..
001154: 000000              	halt				; ..
;
001156: 000004              	iot				; ..
001160: 000000              	halt				; ..
;
001162: 000004              	iot				; ..
001164: 000000              	halt				; ..
001166: 000000              	halt				; ..
001170: 000000              	halt				; ..
;
001172: 000004              	iot				; ..
001174: 000000              	halt				; ..
;
001176: 000004              	iot				; ..
001200: 000000              	halt				; ..
001202: 000000              	halt				; ..
001204: 000000              	halt				; ..
;
001206: 000004              	iot				; ..
001210: 000000              	halt				; ..
;
001212: 000004              	iot				; ..
001214: 000000              	halt				; ..
001216: 000000              	halt				; ..
001220: 000000              	halt				; ..
001222: 000000              	halt				; ..
001224: 000000              	halt				; ..
001226: 000000              	halt				; ..
001230: 000000              	halt				; ..
;
001232: 000004              	iot				; ..
001234: 000000              	halt				; ..
;
001236: 000004              	iot				; ..
001240: 000000              	halt				; ..
001242: 000000              	halt				; ..
001244: 000000              	halt				; ..
001246: 000000              	halt				; ..
001250: 000000              	halt				; ..
001252: 000000              	halt				; ..
001254: 000000              	halt				; ..
001256: 000000              	halt				; ..
001260: 000000              	halt				; ..
001262: 000000              	halt				; ..
001264: 000000              	halt				; ..
001266: 000000              	halt				; ..
001270: 000000              	halt				; ..
001272: 000000              	halt				; ..
001274: 000000              	halt				; ..
001276: 000000              	halt				; ..
001300: 000000              	halt				; ..
001302: 000000              	halt				; ..
001304: 000000              	halt				; ..
001306: 000000              	halt				; ..
001310: 000000              	halt				; ..
001312: 000000              	halt				; ..
001314: 000000              	halt				; ..
001316: 000000              	halt				; ..
001320: 000000              	halt				; ..
001322: 000000              	halt				; ..
001324: 000000              	halt				; ..
001326: 000000              	halt				; ..
001330: 000000              	halt				; ..
001332: 000000              	halt				; ..
001334: 000000              	halt				; ..
001336: 000000              	halt				; ..
001340: 000000              	halt				; ..
001342: 000000              	halt				; ..
001344: 000000              	halt				; ..
001346: 000000              	halt				; ..
001350: 000000              	halt				; ..
001352: 000000              	halt				; ..
001354: 000000              	halt				; ..
001356: 000000              	halt				; ..
001360: 000000              	halt				; ..
001362: 000000              	halt				; ..
001364: 000000              	halt				; ..
001366: 000000              	halt				; ..
001370: 000000              	halt				; ..
001372: 000000              	halt				; ..
001374: 000000              	halt				; ..
001376: 000000              	halt				; ..
001400: 000000              	halt				; ..
001402: 000000              	halt				; ..
001404: 000000              	halt				; ..
001406: 000000              	halt				; ..
001410: 000000              	halt				; ..
001412: 000000              	halt				; ..
001414: 000000              	halt				; ..
001416: 000000              	halt				; ..
001420: 000000              	halt				; ..
001422: 000000              	halt				; ..
001424: 000000              	halt				; ..
001426: 000000              	halt				; ..
001430: 000000              	halt				; ..
001432: 000000              	halt				; ..
001434: 000000              	halt				; ..
001436: 000000              	halt				; ..
001440: 000000              	halt				; ..
001442: 000000              	halt				; ..
001444: 000000              	halt				; ..
001446: 000000              	halt				; ..
001450: 000000              	halt				; ..
001452: 000000              	halt				; ..
001454: 000000              	halt				; ..
001456: 000000              	halt				; ..
001460: 000000              	halt				; ..
001462: 000000              	halt				; ..
001464: 000000              	halt				; ..
001466: 000000              	halt				; ..
001470: 000000              	halt				; ..
001472: 000000              	halt				; ..
001474: 000000              	halt				; ..
001476: 000000              	halt				; ..
001500: 000000              	halt				; ..
001502: 000000              	halt				; ..
001504: 000000              	halt				; ..
;
001506: 000004              	iot				; ..
001510: 000042              	invalid opcode			; ".
001512: 000000              	halt				; ..
001514: 000000              	halt				; ..
;
001516: 000012              	invalid opcode			; ..
001520: 000001              	wait				; ..
001522: 177560 000000       	ldcdf	f1,0(r0)		; p...
001526: 000021              	invalid opcode			; ..
001530: 000001              	wait				; ..
001532: 177562 000000       	ldcdf	f1,0(r2)		; r...
001536: 000030              	invalid opcode			; ..
001540: 000001              	wait				; ..
001542: 177564 000000       	ldcdf	f1,0(r4)		; t...
001546: 000037              	invalid opcode			; ..
001550: 000001              	wait				; ..
001552: 177566 000000       	ldcdf	f1,0(r6)		; v...
001556: 000046              	invalid opcode			; &.
001560: 000001              	wait				; ..
001562: 177546              	ldcdf	f1,-(r6)		; f.
001564: 000000              	halt				; ..
;
001566: 000055              	invalid opcode			; -.
001570: 000002              	rti				; ..
;
001572: 000000              	halt				; ..
001574: 000000              	halt				; ..
;
001576: 000062              	invalid opcode			; 2.
001600: 000003              	bpt				; ..
001602: 000514              	br	2034			; L.
;
001604: 000000              	halt				; ..
;
001606: 000070              	invalid opcode			; 8.
001610: 000003              	bpt				; ..
001612: 000536              	br	2110			; ^.
;
001614: 000000              	halt				; ..
;
001616: 000075              	invalid opcode			; =.
001620: 000002              	rti				; ..
;
001622: 000400              	br	1624			; ..
;
001624: 000000              	halt				; ..
;
001626: 000103              	jmp	r3			; C.
;
001630: 000003              	bpt				; ..
001632: 000610              	br	1254			; ..
;
001634: 000000              	halt				; ..
;
001636: 000111              	jmp	(r1)			; I.
;
001640: 000002              	rti				; ..
;
001642: 000060              	invalid opcode			; 0.
001644: 000000              	halt				; ..
;
001646: 000117              	jmp	(r7)			; O.
;
001650: 000002              	rti				; ..
;
001652: 000424              	br	1724			; ..
;
001654: 000000              	halt				; ..
;
001656: 000125              	jmp	(r5)+			; U.
;
001660: 000003              	bpt				; ..
001662: 000614              	br	1314			; ..
;
001664: 000000              	halt				; ..
;
001666: 000132              	jmp	@(r2)+			; Z.
;
001670: 000003              	bpt				; ..
001672: 000616              	br	1330			; ..
;
001674: 000000              	halt				; ..
;
001676: 000136              	jmp	@(r6)+			; ^.
;
001700: 000002              	rti				; ..
;
001702: 000152              	jmp	@-(r2)			; j.
;
001704: 000000              	halt				; ..
;
001706: 000143              	jmp	-(r3)			; c.
;
001710: 000002              	rti				; ..
;
001712: 000272              	invalid opcode			; :.
001714: 000000              	halt				; ..
;
001716: 000151              	jmp	@-(r1)			; i.
;
001720: 000002              	rti				; ..
;
001722: 000220              	invalid opcode			; ..
001724: 000000              	halt				; ..
;
001726: 000157              	jmp	@-(r7)			; o.
;
001730: 000002              	rti				; ..
;
001732: 000216              	invalid opcode			; ..
001734: 000000              	halt				; ..
;
001736: 000164 000003       	jmp	3(r4)			; t...
;
001742: 000622              	br	1410			; ..
;
001744: 000000              	halt				; ..
;
001746: 000171 000002       	jmp	@2(r1)			; y...
;
001752: 000250              	cln				; (.
001754: 000000              	halt				; ..
;
001756: 000200              	rts	r0			; ..
;
001760: 000002              	rti				; ..
;
001762: 000246              	invalid opcode			; &.
001764: 000000              	halt				; ..
;
001766: 000206              	rts	r6			; ..
;
001770: 000002              	rti				; ..
;
001772: 000270              	sen				; 8.
001774: 000000              	halt				; ..
;
001776: 000214              	invalid opcode			; ..
002000: 000003              	bpt				; ..
002002: 000624              	br	1454			; ..
;
002004: 000000              	halt				; ..
;
002006: 000221              	invalid opcode			; ..
002010: 000003              	bpt				; ..
002012: 000620              	br	1454			; ..
;
002014: 000000              	halt				; ..
;
002016: 000225              	invalid opcode			; ..
002020: 000003              	bpt				; ..
002022: 000537              	br	2322			; _.
;
002024: 000000              	halt				; ..
;
002026: 000233              	spl	3			; ..
002030: 000003              	bpt				; ..
002032: 000576              	br	2430			; ~.
;
002034: 000000              	halt				; ..
;
002036: 000240              	nop				;  .
002040: 000003              	bpt				; ..
002042: 000577              	br	2442			; ..
;
002044: 000000              	halt				; ..
;
002046: 000247              	invalid opcode			; '.
002050: 000002              	rti				; ..
;
002052: 000452              	br	2200			; *.
;
002054: 000000              	halt				; ..
;
002056: 000256              	invalid opcode			; ..
002060: 000003              	bpt				; ..
002062: 000607              	br	1502			; ..
;
002064: 000000              	halt				; ..
;
002066: 000263              	invalid opcode			; 3.
002070: 000002              	rti				; ..
;
002072: 000402              	br	2100			; ..
;
002074: 000000              	halt				; ..
;
002076: 000271              	invalid opcode			; 9.
002100: 000002              	rti				; ..
;
002102: 000422              	br	2150			; ..
;
002104: 000000              	halt				; ..
;
002106: 000277              	scc				; ?.
002110: 000002              	rti				; ..
;
002112: 000432              	br	2200			; ..
;
002114: 000000              	halt				; ..
;
002116: 000304              	swab	r4			; D.
002120: 000002              	rti				; ..
;
002122: 000450              	br	2244			; (.
;
002124: 000000              	halt				; ..
;
002126: 000312              	swab	(r2)			; J.
002130: 000002              	rti				; ..
;
002132: 000456              	br	2270			; ..
;
002134: 000000              	halt				; ..
;
002136: 000317              	swab	(r7)			; O.
002140: 000002              	rti				; ..
;
002142: 000474              	br	2334			; <.
;
002144: 000000              	halt				; ..
;
002146: 000325              	swab	(r5)+			; U.
002150: 072163 071141       	ash	71141(r3),r1		; star
002154: 000164 061153       	jmp	61153(r4)		; t.kb
;
002160: 072163 072141       	ash	72141(r3),r1		; stat
002164: 065400              	add	@-(r4),r0		; .k
002166: 062142              	add	(r1)+,-(r2)		; bd
002170: 072141              	ash	-(r1),r1		; at
002172: 000141              	jmp	-(r1)			; a.
;
002174: 071160 072163       	div	72163(r0),r1		; prst
002200: 072141              	ash	-(r1),r1		; at
002202: 070000              	mul	r0,r0			; .p
002204: 062162 072141       	add	(r1)+,72141(r2)		; rdat
002210: 000141              	jmp	-(r1)			; a.
;
002212: 066143 072163       	add	72163(r1),-(r3)		; clst
002216: 072141              	ash	-(r1),r1		; at
002220: 073000              	ashc	r0,r0			; .v
002222: 061545              	add	(r5),-(r5)		; ec
002224: 000163 072561       	jmp	72561(r3)		; s.qu
;
002230: 071145              	div	-(r5),r1		; er
002232: 000171 067145       	jmp	@67145(r1)		; y.en
;
002236: 070544              	mul	-(r4),r5		; dq
002240: 070000              	mul	r0,r0			; .p
002242: 064562 072156       	add	-(r5),72156(r2)		; rint
002246: 064400              	add	-(r4),r0		; .i
002250: 064564 062555       	add	-(r5),62555(r4)		; time
002254: 067000 074145       	add	@74145(r0),r0		; .nex
002260: 062164 064400       	add	(r1)+,64400(r4)		; td.i
002264: 061556              	add	(r5),@-(r6)		; nc
002266: 067157 064000       	add	@64000(r1),@-(r7)	; on.h
002272: 072557              	ash	@-(r7),r5		; ou
002274: 000162 064555       	jmp	64555(r2)		; r.mi
;
002300: 000156              	jmp	@-(r6)			; n.
;
002302: 071551              	div	@-(r1),r5		; is
002304: 071562 065400       	div	65400(r2),r5		; rs.k
002310: 064542              	add	-(r5),-(r2)		; bi
002312: 072156              	ash	@-(r6),r1		; nt
002314: 061400              	add	(r4),r0			; .c
002316: 064554              	add	-(r5),@-(r4)		; li
002320: 072156              	ash	@-(r6),r1		; nt
002322: 066000 067557       	add	67557(r0),r0		; .loo
002326: 000160 064564       	jmp	64564(r0)		; p.ti
;
002332: 065543              	add	@-(r5),-(r3)		; ck
002334: 072400              	ash	r0,r4			; .u
002336: 062160 072141       	add	(r1)+,72141(r0)		; pdat
002342: 000145              	jmp	-(r5)			; e.
;
002344: 074145              	xor	-(r5),r1		; ex
002346: 072151              	ash	@-(r1),r1		; it
002350: 000063              	invalid opcode			; 3.
002352: 074145              	xor	-(r5),r1		; ex
002354: 072151              	ash	@-(r1),r1		; it
002356: 000064              	invalid opcode			; 4.
002360: 062564 070155       	add	(r5)+,70155(r4)		; temp
002364: 071400              	div	r0,r4			; .s
002366: 061545              	add	(r5),-(r5)		; ec
002370: 066400 071545       	add	71545(r4),r0		; .mes
002374: 063563 062400       	add	@(r5)+,62400(r3)	; sg.e
002400: 062156              	add	(r1)+,@-(r6)		; nd
002402: 000155              	jmp	@-(r5)			; m.
;
002404: 072557              	ash	@-(r7),r5		; ou
002406: 070164 072165       	mul	72165(r4),r1		; tput
002412: 067400 072165       	add	@72165(r4),r0		; .out
002416: 067543 000156       	add	@156(r5),-(r3)		; con.
002422: 067145 067544       	add	@67544(r1),-(r5)	; endo
002426: 060400              	add	r4,r0			; .a
002430: 060547              	add	r5,-(r7)		; ga
002432: 067151 062400       	add	@62400(r1),@-(r1)	; in.e
002436: 064570 030564       	add	-(r5),@30564(r0)	; xit1
002442: 072000              	ash	r0,r0			; .t
002444: 067145 000163       	add	@163(r1),-(r5)		; ens.
002450: 074145              	xor	-(r5),r1		; ex
002452: 072151              	ash	@-(r1),r1		; it
002454: 000062              	invalid opcode			; 2.
002456: 067555 062562       	add	@62562(r5),@-(r5)	; more
002462: 072400              	ash	r0,r4			; .u
002464: 064556              	add	-(r5),@-(r6)		; ni
002466: 071564 000000       	div	0(r4),r5		; ts..
